; Function Attrs: mustprogress uwtable
define void @_ZN13ProfileDialog21on_buttonBox_rejectedEv(ptr noundef nonnull align 8 dereferenceable(120) %0) local_unnamed_addr #0 align 2 personality ptr @__gxx_personality_v0 {
  %2 = alloca %class.QString, align 8
  %3 = alloca %class.QString, align 8
  call void @llvm.memset.p0.i64(ptr noundef nonnull align 8 dereferenceable(24) %2, i8 0, i64 24, i1 false)
  %4 = getelementptr inbounds i8, ptr %0, i64 104
  %5 = load ptr, ptr %4, align 8
  %6 = invoke noundef zeroext i1 @_ZN12ProfileModel13clearImportedEP7QString(ptr noundef nonnull align 8 dereferenceable(104) %5, ptr noundef nonnull %2)
          to label %7 unwind label %15

7:                                                ; preds = %1
  br i1 %6, label %_ZN7QStringD2Ev.exit, label %8

8:                                                ; preds = %7
  invoke void @_ZNK11QMetaObject2trEPKcS1_i(ptr dead_on_unwind nonnull writable sret(%class.QString) align 8 %3, ptr noundef nonnull align 8 dereferenceable(56) @_ZN13ProfileDialog16staticMetaObjectE, ptr noundef nonnull @.str.21, ptr noundef null, i32 noundef -1)
          to label %_ZN13ProfileDialog2trEPKcS1_i.exit unwind label %15

_ZN13ProfileDialog2trEPKcS1_i.exit:               ; preds = %8
  %9 = invoke noundef i32 @_ZN11QMessageBox8criticalEP7QWidgetRK7QStringS4_6QFlagsINS_14StandardButtonEES6_(ptr noundef nonnull %0, ptr noundef nonnull align 8 dereferenceable(24) %3, ptr noundef nonnull align 8 dereferenceable(24) %2, i32 1024, i32 noundef 0)
          to label %10 unwind label %17

10:                                               ; preds = %_ZN13ProfileDialog2trEPKcS1_i.exit
  %11 = load ptr, ptr %3, align 8
  %.not.i.i.i = icmp eq ptr %11, null
  br i1 %.not.i.i.i, label %_ZN7QStringD2Ev.exit, label %_ZN17QArrayDataPointerIDsE5derefEv.exit.i.i

_ZN17QArrayDataPointerIDsE5derefEv.exit.i.i:      ; preds = %10
  %12 = atomicrmw sub ptr %11, i32 1 seq_cst, align 4
  %.not.i.i = icmp eq i32 %12, 1
  br i1 %.not.i.i, label %13, label %_ZN7QStringD2Ev.exit

13:                                               ; preds = %_ZN17QArrayDataPointerIDsE5derefEv.exit.i.i
  %14 = load ptr, ptr %3, align 8
  call void @_ZN10QArrayData10deallocateEPS_xx(ptr noundef %14, i64 noundef 2, i64 noundef 8) #17
  br label %_ZN7QStringD2Ev.exit

15:                                               ; preds = %8, %1
  %16 = landingpad { ptr, i32 }
          cleanup
  br label %_ZN7QStringD2Ev.exit7

17:                                               ; preds = %_ZN13ProfileDialog2trEPKcS1_i.exit
  %18 = landingpad { ptr, i32 }
          cleanup
  %19 = load ptr, ptr %3, align 8
  %.not.i.i.i4 = icmp eq ptr %19, null
  br i1 %.not.i.i.i4, label %_ZN7QStringD2Ev.exit7, label %_ZN17QArrayDataPointerIDsE5derefEv.exit.i.i5

_ZN17QArrayDataPointerIDsE5derefEv.exit.i.i5:     ; preds = %17
  %20 = atomicrmw sub ptr %19, i32 1 seq_cst, align 4
  %.not.i.i6 = icmp eq i32 %20, 1
  br i1 %.not.i.i6, label %21, label %_ZN7QStringD2Ev.exit7

21:                                               ; preds = %_ZN17QArrayDataPointerIDsE5derefEv.exit.i.i5
  %22 = load ptr, ptr %3, align 8
  call void @_ZN10QArrayData10deallocateEPS_xx(ptr noundef %22, i64 noundef 2, i64 noundef 8) #17
  br label %_ZN7QStringD2Ev.exit7

_ZN7QStringD2Ev.exit:                             ; preds = %13, %_ZN17QArrayDataPointerIDsE5derefEv.exit.i.i, %10, %7
  %23 = load ptr, ptr %2, align 8
  %.not.i.i.i8 = icmp eq ptr %23, null
  br i1 %.not.i.i.i8, label %_ZN7QStringD2Ev.exit11, label %_ZN17QArrayDataPointerIDsE5derefEv.exit.i.i9

_ZN17QArrayDataPointerIDsE5derefEv.exit.i.i9:     ; preds = %_ZN7QStringD2Ev.exit
  %24 = atomicrmw sub ptr %23, i32 1 seq_cst, align 4
  %.not.i.i10 = icmp eq i32 %24, 1
  br i1 %.not.i.i10, label %25, label %_ZN7QStringD2Ev.exit11

25:                                               ; preds = %_ZN17QArrayDataPointerIDsE5derefEv.exit.i.i9
  %26 = load ptr, ptr %2, align 8
  call void @_ZN10QArrayData10deallocateEPS_xx(ptr noundef %26, i64 noundef 2, i64 noundef 8) #17
  br label %_ZN7QStringD2Ev.exit11

_ZN7QStringD2Ev.exit11:                           ; preds = %_ZN7QStringD2Ev.exit, %_ZN17QArrayDataPointerIDsE5derefEv.exit.i.i9, %25
  ret void

_ZN7QStringD2Ev.exit7:                            ; preds = %21, %_ZN17QArrayDataPointerIDsE5derefEv.exit.i.i5, %17, %15
  %.pn = phi { ptr, i32 } [ %16, %15 ], [ %18, %17 ], [ %18, %_ZN17QArrayDataPointerIDsE5derefEv.exit.i.i5 ], [ %18, %21 ]
  %27 = load ptr, ptr %2, align 8
  %.not.i.i.i12 = icmp eq ptr %27, null
  br i1 %.not.i.i.i12, label %_ZN7QStringD2Ev.exit15, label %_ZN17QArrayDataPointerIDsE5derefEv.exit.i.i13

_ZN17QArrayDataPointerIDsE5derefEv.exit.i.i13:    ; preds = %_ZN7QStringD2Ev.exit7
  %28 = atomicrmw sub ptr %27, i32 1 seq_cst, align 4
  %.not.i.i14 = icmp eq i32 %28, 1
  br i1 %.not.i.i14, label %29, label %_ZN7QStringD2Ev.exit15

29:                                               ; preds = %_ZN17QArrayDataPointerIDsE5derefEv.exit.i.i13
  %30 = load ptr, ptr %2, align 8
  call void @_ZN10QArrayData10deallocateEPS_xx(ptr noundef %30, i64 noundef 2, i64 noundef 8) #17
  br label %_ZN7QStringD2Ev.exit15

_ZN7QStringD2Ev.exit15:                           ; preds = %_ZN7QStringD2Ev.exit7, %_ZN17QArrayDataPointerIDsE5derefEv.exit.i.i13, %29
  resume { ptr, i32 } %.pn
}